; Function Attrs: mustprogress nounwind uwtable
define void @_ZN7rocksdb15FileTraceReaderD2Ev(ptr noundef nonnull align 8 captures(none) dereferenceable(48) initializes((0, 8)) %0) unnamed_addr #1 align 2 personality ptr @__gxx_personality_v0 {
  store ptr getelementptr inbounds nuw inrange(-16, 40) (i8, ptr @_ZTVN7rocksdb15FileTraceReaderE, i64 16), ptr %0, align 8, !tbaa !18
  %2 = getelementptr inbounds nuw i8, ptr %0, i64 8
  %3 = load ptr, ptr %2, align 8, !tbaa !20, !noalias !33
  store ptr null, ptr %2, align 8, !tbaa !20, !noalias !33
  %.not.i.i.i = icmp eq ptr %3, null
  br i1 %.not.i.i.i, label %_ZN7rocksdb6StatusD2Ev.exit, label %_ZNKSt14default_deleteIN7rocksdb22RandomAccessFileReaderEEclEPS1_.exit.i.i.i

_ZNKSt14default_deleteIN7rocksdb22RandomAccessFileReaderEEclEPS1_.exit.i.i.i: ; preds = %1
  tail call void @_ZN7rocksdb22RandomAccessFileReaderD2Ev(ptr noundef nonnull align 8 dereferenceable(202) %3) #22, !noalias !33
  tail call void @_ZdlPvm(ptr noundef nonnull %3, i64 noundef 208) #20, !noalias !33
  br label %_ZN7rocksdb6StatusD2Ev.exit

_ZN7rocksdb6StatusD2Ev.exit:                      ; preds = %_ZNKSt14default_deleteIN7rocksdb22RandomAccessFileReaderEEclEPS1_.exit.i.i.i, %1
  %4 = getelementptr inbounds nuw i8, ptr %0, i64 40
  %5 = load ptr, ptr %4, align 8, !tbaa !24
  %6 = icmp eq ptr %5, null
  br i1 %6, label %8, label %7

7:                                                ; preds = %_ZN7rocksdb6StatusD2Ev.exit
  tail call void @_ZdaPv(ptr noundef nonnull %5) #20
  br label %8

8:                                                ; preds = %7, %_ZN7rocksdb6StatusD2Ev.exit
  %9 = load ptr, ptr %2, align 8, !tbaa !20
  %.not.i = icmp eq ptr %9, null
  br i1 %.not.i, label %_ZNSt10unique_ptrIN7rocksdb22RandomAccessFileReaderESt14default_deleteIS1_EED2Ev.exit, label %_ZNKSt14default_deleteIN7rocksdb22RandomAccessFileReaderEEclEPS1_.exit.i

_ZNKSt14default_deleteIN7rocksdb22RandomAccessFileReaderEEclEPS1_.exit.i: ; preds = %8
  tail call void @_ZN7rocksdb22RandomAccessFileReaderD2Ev(ptr noundef nonnull align 8 dereferenceable(202) %9) #22
  tail call void @_ZdlPvm(ptr noundef nonnull %9, i64 noundef 208) #20
  br label %_ZNSt10unique_ptrIN7rocksdb22RandomAccessFileReaderESt14default_deleteIS1_EED2Ev.exit

_ZNSt10unique_ptrIN7rocksdb22RandomAccessFileReaderESt14default_deleteIS1_EED2Ev.exit: ; preds = %8, %_ZNKSt14default_deleteIN7rocksdb22RandomAccessFileReaderEEclEPS1_.exit.i
  store ptr null, ptr %2, align 8, !tbaa !20
  ret void
}